target datalayout = "e-m:e-p270:32:32-p271:32:32-p272:64:64-i64:64-i128:128-f80:128-n8:16:32:64-S128"
target triple = "x86_64-pc-linux-gnu"

%struct.mbedtls_mpi = type { ptr, i16, i16 }

; Function Attrs: nounwind uwtable
define hidden i32 @mbedtls_mpi_grow(ptr noundef %0, i64 noundef %1) #0 {
  %3 = alloca i32, align 4
  %4 = alloca ptr, align 8
  %5 = alloca i64, align 8
  %6 = alloca ptr, align 8
  %7 = alloca i32, align 4
  store ptr %0, ptr %4, align 8, !tbaa !3
  store i64 %1, ptr %5, align 8, !tbaa !15
  call void @llvm.lifetime.start.p0(i64 8, ptr %6) #9
  %8 = load i64, ptr %5, align 8, !tbaa !15
  %9 = icmp ugt i64 %8, 10000
  br i1 %9, label %10, label %11

10:                                               ; preds = %2
  store i32 -16, ptr %3, align 4
  store i32 1, ptr %7, align 4
  br label %55

11:                                               ; preds = %2
  %12 = load ptr, ptr %4, align 8, !tbaa !3
  %13 = getelementptr inbounds nuw %struct.mbedtls_mpi, ptr %12, i32 0, i32 2
  %14 = load i16, ptr %13, align 2, !tbaa !10
  %15 = zext i16 %14 to i64
  %16 = load i64, ptr %5, align 8, !tbaa !15
  %17 = icmp ult i64 %15, %16
  br i1 %17, label %18, label %54

18:                                               ; preds = %11
  %19 = load i64, ptr %5, align 8, !tbaa !15
  %20 = call noalias ptr @calloc(i64 noundef %19, i64 noundef 8) #10
  store ptr %20, ptr %6, align 8, !tbaa !25
  %21 = icmp eq ptr %20, null
  br i1 %21, label %22, label %23

22:                                               ; preds = %18
  store i32 -16, ptr %3, align 4
  store i32 1, ptr %7, align 4
  br label %55

23:                                               ; preds = %18
  %24 = load ptr, ptr %4, align 8, !tbaa !3
  %25 = getelementptr inbounds nuw %struct.mbedtls_mpi, ptr %24, i32 0, i32 0
  %26 = load ptr, ptr %25, align 8, !tbaa !17
  %27 = icmp ne ptr %26, null
  br i1 %27, label %28, label %46

28:                                               ; preds = %23
  %29 = load ptr, ptr %6, align 8, !tbaa !25
  %30 = load ptr, ptr %4, align 8, !tbaa !3
  %31 = getelementptr inbounds nuw %struct.mbedtls_mpi, ptr %30, i32 0, i32 0
  %32 = load ptr, ptr %31, align 8, !tbaa !17
  %33 = load ptr, ptr %4, align 8, !tbaa !3
  %34 = getelementptr inbounds nuw %struct.mbedtls_mpi, ptr %33, i32 0, i32 2
  %35 = load i16, ptr %34, align 2, !tbaa !10
  %36 = zext i16 %35 to i64
  %37 = mul i64 %36, 8
  call void @llvm.memcpy.p0.p0.i64(ptr align 8 %29, ptr align 8 %32, i64 %37, i1 false)
  %38 = load ptr, ptr %4, align 8, !tbaa !3
  %39 = getelementptr inbounds nuw %struct.mbedtls_mpi, ptr %38, i32 0, i32 0
  %40 = load ptr, ptr %39, align 8, !tbaa !17
  %41 = load ptr, ptr %4, align 8, !tbaa !3
  %42 = getelementptr inbounds nuw %struct.mbedtls_mpi, ptr %41, i32 0, i32 2
  %43 = load i16, ptr %42, align 2, !tbaa !10
  %44 = zext i16 %43 to i64
  %45 = mul i64 8, %44
  call void @mbedtls_zeroize_and_free(ptr noundef %40, i64 noundef %45)
  br label %46

46:                                               ; preds = %28, %23
  %47 = load i64, ptr %5, align 8, !tbaa !15
  %48 = trunc i64 %47 to i16
  %49 = load ptr, ptr %4, align 8, !tbaa !3
  %50 = getelementptr inbounds nuw %struct.mbedtls_mpi, ptr %49, i32 0, i32 2
  store i16 %48, ptr %50, align 2, !tbaa !10
  %51 = load ptr, ptr %6, align 8, !tbaa !25
  %52 = load ptr, ptr %4, align 8, !tbaa !3
  %53 = getelementptr inbounds nuw %struct.mbedtls_mpi, ptr %52, i32 0, i32 0
  store ptr %51, ptr %53, align 8, !tbaa !17
  br label %54

54:                                               ; preds = %46, %11
  store i32 0, ptr %3, align 4
  store i32 1, ptr %7, align 4
  br label %55

55:                                               ; preds = %54, %22, %10
  call void @llvm.lifetime.end.p0(i64 8, ptr %6) #9
  %56 = load i32, ptr %3, align 4
  ret i32 %56
}

; Function Attrs: nounwind uwtable
define hidden i32 @mbedtls_mpi_copy(ptr noundef %0, ptr noundef %1) #0 {
  %3 = alloca i32, align 4
  %4 = alloca ptr, align 8
  %5 = alloca ptr, align 8
  %6 = alloca i32, align 4
  %7 = alloca i64, align 8
  %8 = alloca i32, align 4
  store ptr %0, ptr %4, align 8, !tbaa !3
  store ptr %1, ptr %5, align 8, !tbaa !3
  call void @llvm.lifetime.start.p0(i64 4, ptr %6) #9
  store i32 0, ptr %6, align 4, !tbaa !19
  call void @llvm.lifetime.start.p0(i64 8, ptr %7) #9
  %9 = load ptr, ptr %4, align 8, !tbaa !3
  %10 = load ptr, ptr %5, align 8, !tbaa !3
  %11 = icmp eq ptr %9, %10
  br i1 %11, label %12, label %13

12:                                               ; preds = %2
  store i32 0, ptr %3, align 4
  store i32 1, ptr %8, align 4
  br label %108

13:                                               ; preds = %2
  %14 = load ptr, ptr %5, align 8, !tbaa !3
  %15 = getelementptr inbounds nuw %struct.mbedtls_mpi, ptr %14, i32 0, i32 2
  %16 = load i16, ptr %15, align 2, !tbaa !10
  %17 = zext i16 %16 to i32
  %18 = icmp eq i32 %17, 0
  br i1 %18, label %19, label %37

19:                                               ; preds = %13
  %20 = load ptr, ptr %4, align 8, !tbaa !3
  %21 = getelementptr inbounds nuw %struct.mbedtls_mpi, ptr %20, i32 0, i32 2
  %22 = load i16, ptr %21, align 2, !tbaa !10
  %23 = zext i16 %22 to i32
  %24 = icmp ne i32 %23, 0
  br i1 %24, label %25, label %36

25:                                               ; preds = %19
  %26 = load ptr, ptr %4, align 8, !tbaa !3
  %27 = getelementptr inbounds nuw %struct.mbedtls_mpi, ptr %26, i32 0, i32 1
  store i16 1, ptr %27, align 8, !tbaa !14
  %28 = load ptr, ptr %4, align 8, !tbaa !3
  %29 = getelementptr inbounds nuw %struct.mbedtls_mpi, ptr %28, i32 0, i32 0
  %30 = load ptr, ptr %29, align 8, !tbaa !17
  %31 = load ptr, ptr %4, align 8, !tbaa !3
  %32 = getelementptr inbounds nuw %struct.mbedtls_mpi, ptr %31, i32 0, i32 2
  %33 = load i16, ptr %32, align 2, !tbaa !10
  %34 = zext i16 %33 to i64
  %35 = mul i64 %34, 8
  call void @llvm.memset.p0.i64(ptr align 8 %30, i8 0, i64 %35, i1 false)
  br label %36

36:                                               ; preds = %25, %19
  store i32 0, ptr %3, align 4
  store i32 1, ptr %8, align 4
  br label %108

37:                                               ; preds = %13
  %38 = load ptr, ptr %5, align 8, !tbaa !3
  %39 = getelementptr inbounds nuw %struct.mbedtls_mpi, ptr %38, i32 0, i32 2
  %40 = load i16, ptr %39, align 2, !tbaa !10
  %41 = zext i16 %40 to i32
  %42 = sub nsw i32 %41, 1
  %43 = sext i32 %42 to i64
  store i64 %43, ptr %7, align 8, !tbaa !15
  br label %44

44:                                               ; preds = %57, %37
  %45 = load i64, ptr %7, align 8, !tbaa !15
  %46 = icmp ugt i64 %45, 0
  br i1 %46, label %47, label %60

47:                                               ; preds = %44
  %48 = load ptr, ptr %5, align 8, !tbaa !3
  %49 = getelementptr inbounds nuw %struct.mbedtls_mpi, ptr %48, i32 0, i32 0
  %50 = load ptr, ptr %49, align 8, !tbaa !17
  %51 = load i64, ptr %7, align 8, !tbaa !15
  %52 = getelementptr inbounds nuw i64, ptr %50, i64 %51
  %53 = load i64, ptr %52, align 8, !tbaa !15
  %54 = icmp ne i64 %53, 0
  br i1 %54, label %55, label %56

55:                                               ; preds = %47
  br label %60

56:                                               ; preds = %47
  br label %57

57:                                               ; preds = %56
  %58 = load i64, ptr %7, align 8, !tbaa !15
  %59 = add i64 %58, -1
  store i64 %59, ptr %7, align 8, !tbaa !15
  br label %44, !llvm.loop !28

60:                                               ; preds = %55, %44
  %61 = load i64, ptr %7, align 8, !tbaa !15
  %62 = add i64 %61, 1
  store i64 %62, ptr %7, align 8, !tbaa !15
  %63 = load ptr, ptr %5, align 8, !tbaa !3
  %64 = getelementptr inbounds nuw %struct.mbedtls_mpi, ptr %63, i32 0, i32 1
  %65 = load i16, ptr %64, align 8, !tbaa !14
  %66 = load ptr, ptr %4, align 8, !tbaa !3
  %67 = getelementptr inbounds nuw %struct.mbedtls_mpi, ptr %66, i32 0, i32 1
  store i16 %65, ptr %67, align 8, !tbaa !14
  %68 = load ptr, ptr %4, align 8, !tbaa !3
  %69 = getelementptr inbounds nuw %struct.mbedtls_mpi, ptr %68, i32 0, i32 2
  %70 = load i16, ptr %69, align 2, !tbaa !10
  %71 = zext i16 %70 to i64
  %72 = load i64, ptr %7, align 8, !tbaa !15
  %73 = icmp ult i64 %71, %72
  br i1 %73, label %74, label %84

74:                                               ; preds = %60
  br label %75

75:                                               ; preds = %74
  %76 = load ptr, ptr %4, align 8, !tbaa !3
  %77 = load i64, ptr %7, align 8, !tbaa !15
  %78 = call i32 @mbedtls_mpi_grow(ptr noundef %76, i64 noundef %77)
  store i32 %78, ptr %6, align 4, !tbaa !19
  %79 = icmp ne i32 %78, 0
  br i1 %79, label %80, label %81

80:                                               ; preds = %75
  br label %106

81:                                               ; preds = %75
  br label %82

82:                                               ; preds = %81
  br label %83

83:                                               ; preds = %82
  br label %97

84:                                               ; preds = %60
  %85 = load ptr, ptr %4, align 8, !tbaa !3
  %86 = getelementptr inbounds nuw %struct.mbedtls_mpi, ptr %85, i32 0, i32 0
  %87 = load ptr, ptr %86, align 8, !tbaa !17
  %88 = load i64, ptr %7, align 8, !tbaa !15
  %89 = getelementptr inbounds nuw i64, ptr %87, i64 %88
  %90 = load ptr, ptr %4, align 8, !tbaa !3
  %91 = getelementptr inbounds nuw %struct.mbedtls_mpi, ptr %90, i32 0, i32 2
  %92 = load i16, ptr %91, align 2, !tbaa !10
  %93 = zext i16 %92 to i64
  %94 = load i64, ptr %7, align 8, !tbaa !15
  %95 = sub i64 %93, %94
  %96 = mul i64 %95, 8
  call void @llvm.memset.p0.i64(ptr align 8 %89, i8 0, i64 %96, i1 false)
  br label %97

97:                                               ; preds = %84, %83
  %98 = load ptr, ptr %4, align 8, !tbaa !3
  %99 = getelementptr inbounds nuw %struct.mbedtls_mpi, ptr %98, i32 0, i32 0
  %100 = load ptr, ptr %99, align 8, !tbaa !17
  %101 = load ptr, ptr %5, align 8, !tbaa !3
  %102 = getelementptr inbounds nuw %struct.mbedtls_mpi, ptr %101, i32 0, i32 0
  %103 = load ptr, ptr %102, align 8, !tbaa !17
  %104 = load i64, ptr %7, align 8, !tbaa !15
  %105 = mul i64 %104, 8
  call void @llvm.memcpy.p0.p0.i64(ptr align 8 %100, ptr align 8 %103, i64 %105, i1 false)
  br label %106

106:                                              ; preds = %97, %80
  %107 = load i32, ptr %6, align 4, !tbaa !19
  store i32 %107, ptr %3, align 4
  store i32 1, ptr %8, align 4
  br label %108

108:                                              ; preds = %106, %36, %12
  call void @llvm.lifetime.end.p0(i64 8, ptr %7) #9
  call void @llvm.lifetime.end.p0(i64 4, ptr %6) #9
  %109 = load i32, ptr %3, align 4
  ret i32 %109
}